         name @rpath/libnode.dylib (offset 24)
compatibility version 0.0.0
__Z14data_to_cpointRdS_RNSt3__16vectorI6CPointNS0_9allocatorIS2_EEEE T
__ZN8Quadtree12buildSubtreeERNSt3__16vectorIP6CPointNS0_9allocatorIS3_EEEEddddi T
__ZN8Quadtree14tree_to_matrixEv T
__ZN8Quadtree20get_interaction_listEiiiRNSt3__16vectorI6QTNodeNS0_9allocatorIS2_EEEE T
__ZN8Quadtree6insertERK6CPoint T
__ZN8Quadtree7getDataERNSt3__16vectorIP6CPointNS0_9allocatorIS3_EEEE T
__ZN8Quadtree9deleteAllEP6QTNode T
__ZN8Quadtree9getHeightEP6QTNodei T
__ZN8Quadtree9splitdataENSt3__16vectorIP6CPointNS0_9allocatorIS3_EEEERS6_S7_S7_S7_dd T
__ZN8QuadtreeC1ERNSt3__16vectorIP6CPointNS0_9allocatorIS3_EEEEddddi T
__ZN8QuadtreeC2ERNSt3__16vectorIP6CPointNS0_9allocatorIS3_EEEEddddi T
__ZN8QuadtreeD1Ev T
__ZN8QuadtreeD2Ev T
__ZNKSt3__16vectorIP6CPointNS_9allocatorIS2_EEE8max_sizeEv T
__ZNSt3__111char_traitsIcE11eq_int_typeEii T
__ZNSt3__111char_traitsIcE3eofEv T
__ZNSt3__111char_traitsIcE6lengthEPKc T
__ZNSt3__112__deque_baseIP6QTNodeNS_9allocatorIS2_EEE3endEv T
__ZNSt3__112__deque_baseIP6QTNodeNS_9allocatorIS2_EEE5beginEv T
__ZNSt3__112__deque_baseIP6QTNodeNS_9allocatorIS2_EEE5clearEv T
__ZNSt3__114__split_bufferIPP6QTNodeNS_9allocatorIS3_EEE10push_frontEOS3_ T
__ZNSt3__114__split_bufferIPP6QTNodeNS_9allocatorIS3_EEE9push_backEOS3_ T
__ZNSt3__114__split_bufferIPP6QTNodeRNS_9allocatorIS3_EEE10push_frontERKS3_ T
__ZNSt3__114__split_bufferIPP6QTNodeRNS_9allocatorIS3_EEE18__construct_at_endINS_13move_iteratorIPS3_EEEENS_9enable_ifIXsr21__is_forward_iteratorIT_EE5valueEvE4typeESD_SD_ T
__ZNSt3__114__split_bufferIPP6QTNodeRNS_9allocatorIS3_EEE9push_backEOS3_ T
__ZNSt3__117_DeallocateCaller27__do_deallocate_handle_sizeEPvm T
__ZNSt3__117_DeallocateCaller9__do_callEPv T
__ZNSt3__124__put_character_sequenceIcNS_11char_traitsIcEEEERNS_13basic_ostreamIT_T0_EES7_PKS4_m T
__ZNSt3__15dequeIP6QTNodeNS_9allocatorIS2_EEE19__add_back_capacityEv T
__ZNSt3__15dequeIP6QTNodeNS_9allocatorIS2_EEE9pop_frontEv T
__ZNSt3__15dequeIP6QTNodeNS_9allocatorIS2_EEE9push_backERKS2_ T
__ZNSt3__16vectorIP6CPointNS_9allocatorIS2_EEE11__vallocateEm T
__ZNSt3__16vectorIP6CPointNS_9allocatorIS2_EEE18__construct_at_endIPS2_EENS_9enable_ifIXsr21__is_forward_iteratorIT_EE5valueEvE4typeES9_S9_m T
__ZNSt3__16vectorIP6CPointNS_9allocatorIS2_EEE21__push_back_slow_pathIRKS2_EEvOT_ T
__ZNSt3__16vectorIP6CPointNS_9allocatorIS2_EEE26__swap_out_circular_bufferERNS_14__split_bufferIS2_RS4_EE T
__ZNSt3__1lsINS_11char_traitsIcEEEERNS_13basic_ostreamIcT_EES6_PKc T
___gcov_flush T
_flush_fn_list S
_lprofDirMode D
_writeout_fn_list S

